; ModuleID = '23/764.c'
source_filename = "23/764.c"
target datalayout = "e-m:e-p270:32:32-p271:32:32-p272:64:64-i64:64-f80:128-n8:16:32:64-S128"
target triple = "x86_64-pc-linux-gnu"

@.str = private unnamed_addr constant [4 x i8] c"%s\0A\00", align 1

; Function Attrs: noinline nounwind uwtable
define dso_local void @main() #0 {
  %1 = alloca i32, align 4
  %2 = alloca i32, align 4
  %3 = alloca i32, align 4
  %4 = alloca i32, align 4
  %5 = alloca [100 x i8], align 16
  %6 = alloca [100 x i8], align 16
  %7 = alloca i8*, align 8
  %8 = alloca i8*, align 8
  store i32 0, i32* %3, align 4
  store i32 0, i32* %4, align 4
  %9 = getelementptr inbounds [100 x i8], [100 x i8]* %5, i64 0, i64 0
  %10 = call i32 (i8*, ...) bitcast (i32 (...)* @gets to i32 (i8*, ...)*)(i8* %9)
  %11 = getelementptr inbounds [100 x i8], [100 x i8]* %5, i64 0, i64 0
  %12 = call i64 @strlen(i8* %11) #4
  %13 = trunc i64 %12 to i32
  store i32 %13, i32* %1, align 4
  %14 = getelementptr inbounds [100 x i8], [100 x i8]* %5, i64 0, i64 0
  store i8* %14, i8** %7, align 8
  %15 = getelementptr inbounds [100 x i8], [100 x i8]* %6, i64 0, i64 0
  store i8* %15, i8** %8, align 8
  %16 = load i32, i32* %1, align 4
  %17 = sub nsw i32 %16, 1
  store i32 %17, i32* %2, align 4
  br label %18

18:                                               ; preds = %33, %0
  %19 = load i32, i32* %2, align 4
  %20 = icmp sge i32 %19, 0
  br i1 %20, label %21, label %36

21:                                               ; preds = %18
  %22 = load i32, i32* %2, align 4
  %23 = sext i32 %22 to i64
  %24 = getelementptr inbounds [100 x i8], [100 x i8]* %5, i64 0, i64 %23
  %25 = load i8, i8* %24, align 1
  %26 = sext i8 %25 to i32
  %27 = icmp eq i32 %26, 32
  br i1 %27, label %28, label %32

28:                                               ; preds = %21
  %29 = load i32, i32* %2, align 4
  %30 = sext i32 %29 to i64
  %31 = getelementptr inbounds [100 x i8], [100 x i8]* %5, i64 0, i64 %30
  store i8 0, i8* %31, align 1
  br label %32

32:                                               ; preds = %28, %21
  br label %33

33:                                               ; preds = %32
  %34 = load i32, i32* %2, align 4
  %35 = add nsw i32 %34, -1
  store i32 %35, i32* %2, align 4
  br label %18

36:                                               ; preds = %18
  %37 = load i32, i32* %1, align 4
  %38 = sub nsw i32 %37, 1
  store i32 %38, i32* %2, align 4
  br label %39

39:                                               ; preds = %74, %36
  %40 = load i32, i32* %2, align 4
  %41 = icmp sge i32 %40, 0
  br i1 %41, label %42, label %77

42:                                               ; preds = %39
  %43 = load i32, i32* %2, align 4
  %44 = sext i32 %43 to i64
  %45 = getelementptr inbounds [100 x i8], [100 x i8]* %5, i64 0, i64 %44
  %46 = load i8, i8* %45, align 1
  %47 = sext i8 %46 to i32
  %48 = icmp eq i32 %47, 0
  br i1 %48, label %49, label %63

49:                                               ; preds = %42
  %50 = load i8*, i8** %8, align 8
  %51 = load i32, i32* %3, align 4
  %52 = sext i32 %51 to i64
  %53 = getelementptr inbounds i8, i8* %50, i64 %52
  %54 = load i8*, i8** %7, align 8
  %55 = load i32, i32* %2, align 4
  %56 = sext i32 %55 to i64
  %57 = getelementptr inbounds i8, i8* %54, i64 %56
  %58 = getelementptr inbounds i8, i8* %57, i64 1
  %59 = call i8* @strcpy(i8* %53, i8* %58) #5
  %60 = load i32, i32* %1, align 4
  %61 = load i32, i32* %2, align 4
  %62 = sub nsw i32 %60, %61
  store i32 %62, i32* %3, align 4
  br label %63

63:                                               ; preds = %49, %42
  %64 = load i32, i32* %2, align 4
  %65 = icmp eq i32 %64, 0
  br i1 %65, label %66, label %73

66:                                               ; preds = %63
  %67 = load i8*, i8** %8, align 8
  %68 = load i32, i32* %3, align 4
  %69 = sext i32 %68 to i64
  %70 = getelementptr inbounds i8, i8* %67, i64 %69
  %71 = load i8*, i8** %7, align 8
  %72 = call i8* @strcpy(i8* %70, i8* %71) #5
  br label %73

73:                                               ; preds = %66, %63
  br label %74

74:                                               ; preds = %73
  %75 = load i32, i32* %2, align 4
  %76 = add nsw i32 %75, -1
  store i32 %76, i32* %2, align 4
  br label %39

77:                                               ; preds = %39
  store i32 0, i32* %2, align 4
  br label %78

78:                                               ; preds = %94, %77
  %79 = load i32, i32* %2, align 4
  %80 = load i32, i32* %1, align 4
  %81 = icmp slt i32 %79, %80
  br i1 %81, label %82, label %97

82:                                               ; preds = %78
  %83 = load i32, i32* %2, align 4
  %84 = sext i32 %83 to i64
  %85 = getelementptr inbounds [100 x i8], [100 x i8]* %6, i64 0, i64 %84
  %86 = load i8, i8* %85, align 1
  %87 = sext i8 %86 to i32
  %88 = icmp eq i32 %87, 0
  br i1 %88, label %89, label %93

89:                                               ; preds = %82
  %90 = load i32, i32* %2, align 4
  %91 = sext i32 %90 to i64
  %92 = getelementptr inbounds [100 x i8], [100 x i8]* %6, i64 0, i64 %91
  store i8 32, i8* %92, align 1
  br label %93

93:                                               ; preds = %89, %82
  br label %94

94:                                               ; preds = %93
  %95 = load i32, i32* %2, align 4
  %96 = add nsw i32 %95, 1
  store i32 %96, i32* %2, align 4
  br label %78

97:                                               ; preds = %78
  %98 = getelementptr inbounds [100 x i8], [100 x i8]* %6, i64 0, i64 0
  %99 = call i32 (i8*, ...) @printf(i8* getelementptr inbounds ([4 x i8], [4 x i8]* @.str, i64 0, i64 0), i8* %98)
  ret void
}

declare dso_local i32 @gets(...) #1

; Function Attrs: nounwind readonly
declare dso_local i64 @strlen(i8*) #2

; Function Attrs: nounwind
declare dso_local i8* @strcpy(i8*, i8*) #3

declare dso_local i32 @printf(i8*, ...) #1


!llvm.module.flags = !{!0}
!llvm.ident = !{!1}

!0 = !{i32 1, !"wchar_size", i32 4}
!1 = !{!"clang version 10.0.0-4ubuntu1 "}
